; ModuleID = '48/1394.c'
source_filename = "48/1394.c"
target datalayout = "e-m:e-p270:32:32-p271:32:32-p272:64:64-i64:64-f80:128-n8:16:32:64-S128"
target triple = "x86_64-pc-linux-gnu"

@a = dso_local global [11 x [11 x [5 x i32]]] zeroinitializer, align 16
@.str = private unnamed_addr constant [6 x i8] c"%d %d\00", align 1
@m = common dso_local global i32 0, align 4
@n = common dso_local global i32 0, align 4
@.str.1 = private unnamed_addr constant [4 x i8] c"%d \00", align 1
@.str.2 = private unnamed_addr constant [3 x i8] c"%d\00", align 1
@.str.3 = private unnamed_addr constant [2 x i8] c"\0A\00", align 1

; Function Attrs: noinline nounwind uwtable
define dso_local i32 @main() #0 {
  %1 = alloca i32, align 4
  %2 = alloca i32, align 4
  %3 = alloca i32, align 4
  %4 = alloca i32, align 4
  store i32 0, i32* %1, align 4
  %5 = call i32 (i8*, ...) @__isoc99_scanf(i8* getelementptr inbounds ([6 x i8], [6 x i8]* @.str, i64 0, i64 0), i32* @m, i32* @n)
  %6 = load i32, i32* @m, align 4
  store i32 %6, i32* getelementptr inbounds ([11 x [11 x [5 x i32]]], [11 x [11 x [5 x i32]]]* @a, i64 0, i64 5, i64 5, i64 0), align 4
  store i32 0, i32* %4, align 4
  br label %7

7:                                                ; preds = %50, %0
  %8 = load i32, i32* %4, align 4
  %9 = load i32, i32* @n, align 4
  %10 = icmp slt i32 %8, %9
  br i1 %10, label %11, label %53

11:                                               ; preds = %7
  %12 = load i32, i32* %4, align 4
  %13 = sub nsw i32 4, %12
  store i32 %13, i32* %2, align 4
  br label %14

14:                                               ; preds = %46, %11
  %15 = load i32, i32* %2, align 4
  %16 = load i32, i32* %4, align 4
  %17 = add nsw i32 7, %16
  %18 = icmp slt i32 %15, %17
  br i1 %18, label %19, label %49

19:                                               ; preds = %14
  %20 = load i32, i32* %4, align 4
  %21 = sub nsw i32 4, %20
  store i32 %21, i32* %3, align 4
  br label %22

22:                                               ; preds = %42, %19
  %23 = load i32, i32* %3, align 4
  %24 = load i32, i32* %4, align 4
  %25 = add nsw i32 7, %24
  %26 = icmp slt i32 %23, %25
  br i1 %26, label %27, label %45

27:                                               ; preds = %22
  %28 = load i32, i32* %2, align 4
  %29 = load i32, i32* %3, align 4
  %30 = load i32, i32* %4, align 4
  %31 = call i32 @xj(i32 %28, i32 %29, i32 %30)
  %32 = load i32, i32* %2, align 4
  %33 = sext i32 %32 to i64
  %34 = getelementptr inbounds [11 x [11 x [5 x i32]]], [11 x [11 x [5 x i32]]]* @a, i64 0, i64 %33
  %35 = load i32, i32* %3, align 4
  %36 = sext i32 %35 to i64
  %37 = getelementptr inbounds [11 x [5 x i32]], [11 x [5 x i32]]* %34, i64 0, i64 %36
  %38 = load i32, i32* %4, align 4
  %39 = add nsw i32 %38, 1
  %40 = sext i32 %39 to i64
  %41 = getelementptr inbounds [5 x i32], [5 x i32]* %37, i64 0, i64 %40
  store i32 %31, i32* %41, align 4
  br label %42

42:                                               ; preds = %27
  %43 = load i32, i32* %3, align 4
  %44 = add nsw i32 %43, 1
  store i32 %44, i32* %3, align 4
  br label %22

45:                                               ; preds = %22
  br label %46

46:                                               ; preds = %45
  %47 = load i32, i32* %2, align 4
  %48 = add nsw i32 %47, 1
  store i32 %48, i32* %2, align 4
  br label %14

49:                                               ; preds = %14
  br label %50

50:                                               ; preds = %49
  %51 = load i32, i32* %4, align 4
  %52 = add nsw i32 %51, 1
  store i32 %52, i32* %4, align 4
  br label %7

53:                                               ; preds = %7
  store i32 1, i32* %2, align 4
  br label %54

54:                                               ; preds = %87, %53
  %55 = load i32, i32* %2, align 4
  %56 = icmp slt i32 %55, 10
  br i1 %56, label %57, label %90

57:                                               ; preds = %54
  store i32 1, i32* %3, align 4
  br label %58

58:                                               ; preds = %73, %57
  %59 = load i32, i32* %3, align 4
  %60 = icmp slt i32 %59, 9
  br i1 %60, label %61, label %76

61:                                               ; preds = %58
  %62 = load i32, i32* %2, align 4
  %63 = sext i32 %62 to i64
  %64 = getelementptr inbounds [11 x [11 x [5 x i32]]], [11 x [11 x [5 x i32]]]* @a, i64 0, i64 %63
  %65 = load i32, i32* %3, align 4
  %66 = sext i32 %65 to i64
  %67 = getelementptr inbounds [11 x [5 x i32]], [11 x [5 x i32]]* %64, i64 0, i64 %66
  %68 = load i32, i32* @n, align 4
  %69 = sext i32 %68 to i64
  %70 = getelementptr inbounds [5 x i32], [5 x i32]* %67, i64 0, i64 %69
  %71 = load i32, i32* %70, align 4
  %72 = call i32 (i8*, ...) @printf(i8* getelementptr inbounds ([4 x i8], [4 x i8]* @.str.1, i64 0, i64 0), i32 %71)
  br label %73

73:                                               ; preds = %61
  %74 = load i32, i32* %3, align 4
  %75 = add nsw i32 %74, 1
  store i32 %75, i32* %3, align 4
  br label %58

76:                                               ; preds = %58
  %77 = load i32, i32* %2, align 4
  %78 = sext i32 %77 to i64
  %79 = getelementptr inbounds [11 x [11 x [5 x i32]]], [11 x [11 x [5 x i32]]]* @a, i64 0, i64 %78
  %80 = getelementptr inbounds [11 x [5 x i32]], [11 x [5 x i32]]* %79, i64 0, i64 9
  %81 = load i32, i32* @n, align 4
  %82 = sext i32 %81 to i64
  %83 = getelementptr inbounds [5 x i32], [5 x i32]* %80, i64 0, i64 %82
  %84 = load i32, i32* %83, align 4
  %85 = call i32 (i8*, ...) @printf(i8* getelementptr inbounds ([3 x i8], [3 x i8]* @.str.2, i64 0, i64 0), i32 %84)
  %86 = call i32 (i8*, ...) @printf(i8* getelementptr inbounds ([2 x i8], [2 x i8]* @.str.3, i64 0, i64 0))
  br label %87

87:                                               ; preds = %76
  %88 = load i32, i32* %2, align 4
  %89 = add nsw i32 %88, 1
  store i32 %89, i32* %2, align 4
  br label %54

90:                                               ; preds = %54
  %91 = load i32, i32* %1, align 4
  ret i32 %91
}

declare dso_local i32 @__isoc99_scanf(i8*, ...) #1

; Function Attrs: noinline nounwind uwtable
define dso_local i32 @xj(i32 %0, i32 %1, i32 %2) #0 {
  %4 = alloca i32, align 4
  %5 = alloca i32, align 4
  %6 = alloca i32, align 4
  %7 = alloca i32, align 4
  %8 = alloca i32, align 4
  store i32 %0, i32* %4, align 4
  store i32 %1, i32* %5, align 4
  store i32 %2, i32* %6, align 4
  store i32 0, i32* %7, align 4
  store i32 -1, i32* %8, align 4
  br label %9

9:                                                ; preds = %55, %3
  %10 = load i32, i32* %8, align 4
  %11 = icmp slt i32 %10, 2
  br i1 %11, label %12, label %58

12:                                               ; preds = %9
  %13 = load i32, i32* %7, align 4
  %14 = load i32, i32* %4, align 4
  %15 = load i32, i32* %8, align 4
  %16 = add nsw i32 %14, %15
  %17 = sext i32 %16 to i64
  %18 = getelementptr inbounds [11 x [11 x [5 x i32]]], [11 x [11 x [5 x i32]]]* @a, i64 0, i64 %17
  %19 = load i32, i32* %5, align 4
  %20 = sext i32 %19 to i64
  %21 = getelementptr inbounds [11 x [5 x i32]], [11 x [5 x i32]]* %18, i64 0, i64 %20
  %22 = load i32, i32* %6, align 4
  %23 = sext i32 %22 to i64
  %24 = getelementptr inbounds [5 x i32], [5 x i32]* %21, i64 0, i64 %23
  %25 = load i32, i32* %24, align 4
  %26 = add nsw i32 %13, %25
  %27 = load i32, i32* %4, align 4
  %28 = load i32, i32* %8, align 4
  %29 = add nsw i32 %27, %28
  %30 = sext i32 %29 to i64
  %31 = getelementptr inbounds [11 x [11 x [5 x i32]]], [11 x [11 x [5 x i32]]]* @a, i64 0, i64 %30
  %32 = load i32, i32* %5, align 4
  %33 = sub nsw i32 %32, 1
  %34 = sext i32 %33 to i64
  %35 = getelementptr inbounds [11 x [5 x i32]], [11 x [5 x i32]]* %31, i64 0, i64 %34
  %36 = load i32, i32* %6, align 4
  %37 = sext i32 %36 to i64
  %38 = getelementptr inbounds [5 x i32], [5 x i32]* %35, i64 0, i64 %37
  %39 = load i32, i32* %38, align 4
  %40 = add nsw i32 %26, %39
  %41 = load i32, i32* %4, align 4
  %42 = load i32, i32* %8, align 4
  %43 = add nsw i32 %41, %42
  %44 = sext i32 %43 to i64
  %45 = getelementptr inbounds [11 x [11 x [5 x i32]]], [11 x [11 x [5 x i32]]]* @a, i64 0, i64 %44
  %46 = load i32, i32* %5, align 4
  %47 = add nsw i32 %46, 1
  %48 = sext i32 %47 to i64
  %49 = getelementptr inbounds [11 x [5 x i32]], [11 x [5 x i32]]* %45, i64 0, i64 %48
  %50 = load i32, i32* %6, align 4
  %51 = sext i32 %50 to i64
  %52 = getelementptr inbounds [5 x i32], [5 x i32]* %49, i64 0, i64 %51
  %53 = load i32, i32* %52, align 4
  %54 = add nsw i32 %40, %53
  store i32 %54, i32* %7, align 4
  br label %55

55:                                               ; preds = %12
  %56 = load i32, i32* %8, align 4
  %57 = add nsw i32 %56, 1
  store i32 %57, i32* %8, align 4
  br label %9

58:                                               ; preds = %9
  %59 = load i32, i32* %7, align 4
  %60 = load i32, i32* %4, align 4
  %61 = sext i32 %60 to i64
  %62 = getelementptr inbounds [11 x [11 x [5 x i32]]], [11 x [11 x [5 x i32]]]* @a, i64 0, i64 %61
  %63 = load i32, i32* %5, align 4
  %64 = sext i32 %63 to i64
  %65 = getelementptr inbounds [11 x [5 x i32]], [11 x [5 x i32]]* %62, i64 0, i64 %64
  %66 = load i32, i32* %6, align 4
  %67 = sext i32 %66 to i64
  %68 = getelementptr inbounds [5 x i32], [5 x i32]* %65, i64 0, i64 %67
  %69 = load i32, i32* %68, align 4
  %70 = add nsw i32 %59, %69
  ret i32 %70
}

declare dso_local i32 @printf(i8*, ...) #1


!llvm.module.flags = !{!0}
!llvm.ident = !{!1}

!0 = !{i32 1, !"wchar_size", i32 4}
!1 = !{!"clang version 10.0.0-4ubuntu1 "}
